; Function Attrs: mustprogress nounwind sspstrong willreturn uwtable
define hidden void @FLAC__bitreader_delete(ptr noundef captures(none) %0) local_unnamed_addr #3 {
  %2 = load ptr, ptr %0, align 8, !tbaa !3
  %.not.i = icmp eq ptr %2, null
  br i1 %.not.i, label %FLAC__bitreader_free.exit, label %3

3:                                                ; preds = %1
  tail call void @free(ptr noundef nonnull %2) #21
  br label %FLAC__bitreader_free.exit

FLAC__bitreader_free.exit:                        ; preds = %1, %3
  tail call void @free(ptr noundef nonnull %0) #21
  ret void
}